target datalayout = "e-m:e-p270:32:32-p271:32:32-p272:64:64-i64:64-i128:128-f80:128-n8:16:32:64-S128"
target triple = "x86_64-pc-linux-gnu"

@_ZZN32pxrInternal_v0_24__pxrReserved__11TfMallocTag10InitializeEPNSt7__cxx1112basic_stringIcSt11char_traitsIcESaIcEEEE6status = internal global i8 0, align 1
@_ZGVZN32pxrInternal_v0_24__pxrReserved__11TfMallocTag10InitializeEPNSt7__cxx1112basic_stringIcSt11char_traitsIcESaIcEEEE6status = internal global i64 0, align 8

; Function Attrs: mustprogress uwtable
define noundef zeroext i1 @_ZN32pxrInternal_v0_24__pxrReserved__11TfMallocTag10InitializeEPNSt7__cxx1112basic_stringIcSt11char_traitsIcESaIcEEE(ptr noundef %0) #0 align 2 personality ptr @__gxx_personality_v0 {
  %2 = alloca ptr, align 8
  %3 = alloca ptr, align 8
  %4 = alloca i32, align 4
  store ptr %0, ptr %2, align 8
  %5 = load atomic i8, ptr @_ZGVZN32pxrInternal_v0_24__pxrReserved__11TfMallocTag10InitializeEPNSt7__cxx1112basic_stringIcSt11char_traitsIcESaIcEEEE6status acquire, align 8
  %6 = icmp eq i8 %5, 0
  br i1 %6, label %7, label %15, !prof !15

7:                                                ; preds = %1
  %8 = call i32 @__cxa_guard_acquire(ptr @_ZGVZN32pxrInternal_v0_24__pxrReserved__11TfMallocTag10InitializeEPNSt7__cxx1112basic_stringIcSt11char_traitsIcESaIcEEEE6status) #6
  %9 = icmp ne i32 %8, 0
  br i1 %9, label %10, label %15

10:                                               ; preds = %7
  %11 = load ptr, ptr %2, align 8
  %12 = invoke noundef zeroext i1 @_ZN32pxrInternal_v0_24__pxrReserved__11TfMallocTag11_InitializeEPNSt7__cxx1112basic_stringIcSt11char_traitsIcESaIcEEE(ptr noundef %11)
          to label %13 unwind label %18

13:                                               ; preds = %10
  %14 = zext i1 %12 to i8
  store i8 %14, ptr @_ZZN32pxrInternal_v0_24__pxrReserved__11TfMallocTag10InitializeEPNSt7__cxx1112basic_stringIcSt11char_traitsIcESaIcEEEE6status, align 1
  call void @__cxa_guard_release(ptr @_ZGVZN32pxrInternal_v0_24__pxrReserved__11TfMallocTag10InitializeEPNSt7__cxx1112basic_stringIcSt11char_traitsIcESaIcEEEE6status) #6
  br label %15

15:                                               ; preds = %13, %7, %1
  %16 = load i8, ptr @_ZZN32pxrInternal_v0_24__pxrReserved__11TfMallocTag10InitializeEPNSt7__cxx1112basic_stringIcSt11char_traitsIcESaIcEEEE6status, align 1
  %17 = trunc i8 %16 to i1
  ret i1 %17

18:                                               ; preds = %10
  %19 = landingpad { ptr, i32 }
          cleanup
  %20 = extractvalue { ptr, i32 } %19, 0
  store ptr %20, ptr %3, align 8
  %21 = extractvalue { ptr, i32 } %19, 1
  store i32 %21, ptr %4, align 4
  call void @__cxa_guard_abort(ptr @_ZGVZN32pxrInternal_v0_24__pxrReserved__11TfMallocTag10InitializeEPNSt7__cxx1112basic_stringIcSt11char_traitsIcESaIcEEEE6status) #6
  br label %22

22:                                               ; preds = %18
  %23 = load ptr, ptr %3, align 8
  %24 = load i32, ptr %4, align 4
  %25 = insertvalue { ptr, i32 } poison, ptr %23, 0
  %26 = insertvalue { ptr, i32 } %25, i32 %24, 1
  resume { ptr, i32 } %26
}