; Function Attrs: mustprogress uwtable
define noundef zeroext i1 @_ZN32pxrInternal_v0_24__pxrReserved__11TfMallocTag10InitializeEPNSt7__cxx1112basic_stringIcSt11char_traitsIcESaIcEEE(ptr noundef %0) local_unnamed_addr #0 align 2 personality ptr @__gxx_personality_v0 {
  %2 = load atomic i8, ptr @_ZGVZN32pxrInternal_v0_24__pxrReserved__11TfMallocTag10InitializeEPNSt7__cxx1112basic_stringIcSt11char_traitsIcESaIcEEEE6status acquire, align 8
  %3 = icmp eq i8 %2, 0
  br i1 %3, label %4, label %10, !prof !29

4:                                                ; preds = %1
  %5 = tail call i32 @__cxa_guard_acquire(ptr nonnull @_ZGVZN32pxrInternal_v0_24__pxrReserved__11TfMallocTag10InitializeEPNSt7__cxx1112basic_stringIcSt11char_traitsIcESaIcEEEE6status) #17
  %.not = icmp eq i32 %5, 0
  br i1 %.not, label %10, label %6

6:                                                ; preds = %4
  %7 = invoke noundef zeroext i1 @_ZN32pxrInternal_v0_24__pxrReserved__11TfMallocTag11_InitializeEPNSt7__cxx1112basic_stringIcSt11char_traitsIcESaIcEEE(ptr noundef %0)
          to label %8 unwind label %13

8:                                                ; preds = %6
  %9 = zext i1 %7 to i8
  store i8 %9, ptr @_ZZN32pxrInternal_v0_24__pxrReserved__11TfMallocTag10InitializeEPNSt7__cxx1112basic_stringIcSt11char_traitsIcESaIcEEEE6status, align 1
  tail call void @__cxa_guard_release(ptr nonnull @_ZGVZN32pxrInternal_v0_24__pxrReserved__11TfMallocTag10InitializeEPNSt7__cxx1112basic_stringIcSt11char_traitsIcESaIcEEEE6status) #17
  br label %10

10:                                               ; preds = %8, %4, %1
  %11 = load i8, ptr @_ZZN32pxrInternal_v0_24__pxrReserved__11TfMallocTag10InitializeEPNSt7__cxx1112basic_stringIcSt11char_traitsIcESaIcEEEE6status, align 1
  %12 = trunc nuw i8 %11 to i1
  ret i1 %12

13:                                               ; preds = %6
  %14 = landingpad { ptr, i32 }
          cleanup
  tail call void @__cxa_guard_abort(ptr nonnull @_ZGVZN32pxrInternal_v0_24__pxrReserved__11TfMallocTag10InitializeEPNSt7__cxx1112basic_stringIcSt11char_traitsIcESaIcEEEE6status) #17
  resume { ptr, i32 } %14
}